target datalayout = "e-m:e-p270:32:32-p271:32:32-p272:64:64-i64:64-i128:128-f80:128-n8:16:32:64-S128"
target triple = "x86_64-pc-linux-gnu"

; Function Attrs: nounwind uwtable
define hidden zeroext i1 @_mi_getenv(ptr noundef %0, ptr noundef %1, i64 noundef %2) #0 {
  %4 = alloca i1, align 1
  %5 = alloca ptr, align 8
  %6 = alloca ptr, align 8
  %7 = alloca i64, align 8
  store ptr %0, ptr %5, align 8, !tbaa !6
  store ptr %1, ptr %6, align 8, !tbaa !6
  store i64 %2, ptr %7, align 8, !tbaa !9
  %8 = load ptr, ptr %5, align 8, !tbaa !6
  %9 = icmp eq ptr %8, null
  br i1 %9, label %16, label %10

10:                                               ; preds = %3
  %11 = load ptr, ptr %6, align 8, !tbaa !6
  %12 = icmp eq ptr %11, null
  br i1 %12, label %16, label %13

13:                                               ; preds = %10
  %14 = load i64, ptr %7, align 8, !tbaa !9
  %15 = icmp ult i64 %14, 64
  br i1 %15, label %16, label %17

16:                                               ; preds = %13, %10, %3
  store i1 false, ptr %4, align 1
  br label %22

17:                                               ; preds = %13
  %18 = load ptr, ptr %5, align 8, !tbaa !6
  %19 = load ptr, ptr %6, align 8, !tbaa !6
  %20 = load i64, ptr %7, align 8, !tbaa !9
  %21 = call zeroext i1 @_mi_prim_getenv(ptr noundef %18, ptr noundef %19, i64 noundef %20) #4
  store i1 %21, ptr %4, align 1
  br label %22

22:                                               ; preds = %17, %16
  %23 = load i1, ptr %4, align 1
  ret i1 %23
}