; Function Attrs: nounwind uwtable
define hidden zeroext i1 @_mi_getenv(ptr noundef %0, ptr noundef %1, i64 noundef %2) local_unnamed_addr #4 {
  %4 = icmp eq ptr %0, null
  %5 = icmp eq ptr %1, null
  %or.cond = or i1 %4, %5
  %6 = icmp ult i64 %2, 64
  %or.cond3 = or i1 %or.cond, %6
  br i1 %or.cond3, label %9, label %7

7:                                                ; preds = %3
  %8 = tail call zeroext i1 @_mi_prim_getenv(ptr noundef nonnull %0, ptr noundef nonnull %1, i64 noundef %2) #11
  br label %9

9:                                                ; preds = %3, %7
  %.0 = phi i1 [ %8, %7 ], [ false, %3 ]
  ret i1 %.0
}